target datalayout = "e-m:e-p270:32:32-p271:32:32-p272:64:64-i64:64-f80:128-n8:16:32:64-S128"
target triple = "x86_64-pc-linux-gnu"

@.str = private unnamed_addr constant [5 x i8] c"%s%s\00", align 1
@.str.1 = private unnamed_addr constant [3 x i8] c"%c\00", align 1
@.str.2 = private unnamed_addr constant [2 x i8] c"\0A\00", align 1

; Function Attrs: noinline nounwind uwtable
define dso_local i32 @main() #0 {
  %1 = alloca i32, align 4
  %2 = alloca [14 x i8], align 1
  %3 = alloca [4 x i8], align 1
  %4 = alloca i8, align 1
  %5 = alloca i32, align 4
  %6 = alloca i32, align 4
  %7 = alloca i32, align 4
  %8 = alloca i32, align 4
  %9 = alloca i32, align 4
  store i32 0, i32* %1, align 4
  br label %10

10:                                               ; preds = %108, %0
  %11 = getelementptr inbounds [14 x i8], [14 x i8]* %2, i64 0, i64 0
  %12 = getelementptr inbounds [4 x i8], [4 x i8]* %3, i64 0, i64 0
  %13 = call i32 (i8*, ...) @__isoc99_scanf(i8* getelementptr inbounds ([5 x i8], [5 x i8]* @.str, i64 0, i64 0), i8* %11, i8* %12)
  %14 = icmp ne i32 %13, -1
  br i1 %14, label %15, label %110

15:                                               ; preds = %10
  %16 = getelementptr inbounds [14 x i8], [14 x i8]* %2, i64 0, i64 0
  %17 = call i64 @strlen(i8* %16) #3
  %18 = trunc i64 %17 to i32
  store i32 %18, i32* %6, align 4
  %19 = getelementptr inbounds [4 x i8], [4 x i8]* %3, i64 0, i64 0
  %20 = call i64 @strlen(i8* %19) #3
  %21 = trunc i64 %20 to i32
  store i32 %21, i32* %5, align 4
  store i32 0, i32* %8, align 4
  %22 = getelementptr inbounds [14 x i8], [14 x i8]* %2, i64 0, i64 0
  %23 = load i8, i8* %22, align 1
  store i8 %23, i8* %4, align 1
  store i32 1, i32* %7, align 4
  br label %24

24:                                               ; preds = %44, %15
  %25 = load i32, i32* %7, align 4
  %26 = load i32, i32* %6, align 4
  %27 = icmp slt i32 %25, %26
  br i1 %27, label %28, label %47

28:                                               ; preds = %24
  %29 = load i32, i32* %7, align 4
  %30 = sext i32 %29 to i64
  %31 = getelementptr inbounds [14 x i8], [14 x i8]* %2, i64 0, i64 %30
  %32 = load i8, i8* %31, align 1
  %33 = sext i8 %32 to i32
  %34 = load i8, i8* %4, align 1
  %35 = sext i8 %34 to i32
  %36 = icmp sgt i32 %33, %35
  br i1 %36, label %37, label %43

37:                                               ; preds = %28
  %38 = load i32, i32* %7, align 4
  store i32 %38, i32* %8, align 4
  %39 = load i32, i32* %7, align 4
  %40 = sext i32 %39 to i64
  %41 = getelementptr inbounds [14 x i8], [14 x i8]* %2, i64 0, i64 %40
  %42 = load i8, i8* %41, align 1
  store i8 %42, i8* %4, align 1
  br label %43

43:                                               ; preds = %37, %28
  br label %44

44:                                               ; preds = %43
  %45 = load i32, i32* %7, align 4
  %46 = add nsw i32 %45, 1
  store i32 %46, i32* %7, align 4
  br label %24

47:                                               ; preds = %24
  store i32 0, i32* %7, align 4
  br label %48

48:                                               ; preds = %69, %47
  %49 = load i32, i32* %7, align 4
  %50 = load i32, i32* %6, align 4
  %51 = load i32, i32* %8, align 4
  %52 = sub nsw i32 %50, %51
  %53 = sub nsw i32 %52, 1
  %54 = icmp sle i32 %49, %53
  br i1 %54, label %55, label %72

55:                                               ; preds = %48
  %56 = load i32, i32* %6, align 4
  %57 = load i32, i32* %7, align 4
  %58 = sub nsw i32 %56, %57
  %59 = sext i32 %58 to i64
  %60 = getelementptr inbounds [14 x i8], [14 x i8]* %2, i64 0, i64 %59
  %61 = load i8, i8* %60, align 1
  %62 = load i32, i32* %5, align 4
  %63 = load i32, i32* %6, align 4
  %64 = add nsw i32 %62, %63
  %65 = load i32, i32* %7, align 4
  %66 = sub nsw i32 %64, %65
  %67 = sext i32 %66 to i64
  %68 = getelementptr inbounds [14 x i8], [14 x i8]* %2, i64 0, i64 %67
  store i8 %61, i8* %68, align 1
  br label %69

69:                                               ; preds = %55
  %70 = load i32, i32* %7, align 4
  %71 = add nsw i32 %70, 1
  store i32 %71, i32* %7, align 4
  br label %48

72:                                               ; preds = %48
  store i32 0, i32* %7, align 4
  br label %73

73:                                               ; preds = %88, %72
  %74 = load i32, i32* %7, align 4
  %75 = load i32, i32* %5, align 4
  %76 = icmp slt i32 %74, %75
  br i1 %76, label %77, label %91

77:                                               ; preds = %73
  %78 = load i32, i32* %7, align 4
  %79 = sext i32 %78 to i64
  %80 = getelementptr inbounds [4 x i8], [4 x i8]* %3, i64 0, i64 %79
  %81 = load i8, i8* %80, align 1
  %82 = load i32, i32* %8, align 4
  %83 = add nsw i32 %82, 1
  %84 = load i32, i32* %7, align 4
  %85 = add nsw i32 %83, %84
  %86 = sext i32 %85 to i64
  %87 = getelementptr inbounds [14 x i8], [14 x i8]* %2, i64 0, i64 %86
  store i8 %81, i8* %87, align 1
  br label %88

88:                                               ; preds = %77
  %89 = load i32, i32* %7, align 4
  %90 = add nsw i32 %89, 1
  store i32 %90, i32* %7, align 4
  br label %73

91:                                               ; preds = %73
  store i32 0, i32* %7, align 4
  br label %92

92:                                               ; preds = %105, %91
  %93 = load i32, i32* %7, align 4
  %94 = load i32, i32* %6, align 4
  %95 = load i32, i32* %5, align 4
  %96 = add nsw i32 %94, %95
  %97 = icmp slt i32 %93, %96
  br i1 %97, label %98, label %108

98:                                               ; preds = %92
  %99 = load i32, i32* %7, align 4
  %100 = sext i32 %99 to i64
  %101 = getelementptr inbounds [14 x i8], [14 x i8]* %2, i64 0, i64 %100
  %102 = load i8, i8* %101, align 1
  %103 = sext i8 %102 to i32
  %104 = call i32 (i8*, ...) @printf(i8* getelementptr inbounds ([3 x i8], [3 x i8]* @.str.1, i64 0, i64 0), i32 %103)
  br label %105

105:                                              ; preds = %98
  %106 = load i32, i32* %7, align 4
  %107 = add nsw i32 %106, 1
  store i32 %107, i32* %7, align 4
  br label %92

108:                                              ; preds = %92
  %109 = call i32 (i8*, ...) @printf(i8* getelementptr inbounds ([2 x i8], [2 x i8]* @.str.2, i64 0, i64 0))
  br label %10

110:                                              ; preds = %10
  %111 = load i32, i32* %1, align 4
  ret i32 %111
}